	.section	__TEXT,__text,regular,pure_instructions
	.build_version macos, 14, 0	sdk_version 14, 4
	.file	1 "/Users/spruhanayak/Desktop/code/classes/compiler/angr_test" "test.c"
	.globl	_compute_and_print              ## -- Begin function compute_and_print
	.p2align	4, 0x90
_compute_and_print:                     ## @compute_and_print
Lfunc_begin0:
	.loc	1 5 0                           ## test.c:5:0
	.cfi_startproc
## %bb.0:
	pushq	%rbp
	.cfi_def_cfa_offset 16
	.cfi_offset %rbp, -16
	movq	%rsp, %rbp
	.cfi_def_cfa_register %rbp
	subq	$16, %rsp
Ltmp0:
	.loc	1 6 14 prologue_end             ## test.c:6:14
	movl	$100, -4(%rbp)
	.loc	1 7 12                          ## test.c:7:12
	movb	$-10, -5(%rbp)
	.loc	1 8 13                          ## test.c:8:13
	movb	$20, -6(%rbp)
	.loc	1 9 13                          ## test.c:9:13
	movl	$0, -12(%rbp)
	.loc	1 10 10                         ## test.c:10:10
	movb	$0, -13(%rbp)
	.loc	1 11 10                         ## test.c:11:10
	movb	$89, -14(%rbp)
Ltmp1:
	.loc	1 14 9                          ## test.c:14:9
	movzbl	-6(%rbp), %eax
	.loc	1 14 24 is_stmt 0               ## test.c:14:24
	addl	-4(%rbp), %eax
	.loc	1 14 39                         ## test.c:14:39
	cmpl	$150, %eax
Ltmp2:
	.loc	1 14 9                          ## test.c:14:9
	jbe	LBB0_2
## %bb.1:
Ltmp3:
	.loc	1 15 20 is_stmt 1               ## test.c:15:20
	movb	$1, -13(%rbp)
Ltmp4:
LBB0_2:
	.loc	1 19 9                          ## test.c:19:9
	testb	$1, -13(%rbp)
	je	LBB0_4
## %bb.3:
Ltmp5:
	.loc	1 20 24                         ## test.c:20:24
	movl	-4(%rbp), %eax
	.loc	1 20 39 is_stmt 0               ## test.c:20:39
	movzbl	-6(%rbp), %ecx
	.loc	1 20 37                         ## test.c:20:37
	addl	%ecx, %eax
	.loc	1 20 21                         ## test.c:20:21
	addl	-12(%rbp), %eax
	movl	%eax, -12(%rbp)
	.loc	1 21 24 is_stmt 1               ## test.c:21:24
	movsbl	-5(%rbp), %eax
	.loc	1 21 21 is_stmt 0               ## test.c:21:21
	addl	-12(%rbp), %eax
	movl	%eax, -12(%rbp)
	.loc	1 22 5 is_stmt 1                ## test.c:22:5
	jmp	LBB0_5
Ltmp6:
LBB0_4:
	.loc	1 23 24                         ## test.c:23:24
	movl	-4(%rbp), %eax
	.loc	1 23 21 is_stmt 0               ## test.c:23:21
	addl	-12(%rbp), %eax
	movl	%eax, -12(%rbp)
	.loc	1 24 17 is_stmt 1               ## test.c:24:17
	movb	$78, -14(%rbp)
Ltmp7:
LBB0_5:
	.loc	1 28 32                         ## test.c:28:32
	movb	-13(%rbp), %cl
	leaq	L_.str.2(%rip), %rsi
	leaq	L_.str.1(%rip), %rax
	testb	$1, %cl
	cmovneq	%rax, %rsi
	.loc	1 28 5 is_stmt 0                ## test.c:28:5
	leaq	L_.str(%rip), %rdi
	movb	$0, %al
	callq	_printf
	.loc	1 29 29 is_stmt 1               ## test.c:29:29
	movsbl	-14(%rbp), %esi
	.loc	1 29 5 is_stmt 0                ## test.c:29:5
	leaq	L_.str.3(%rip), %rdi
	movb	$0, %al
	callq	_printf
	.loc	1 30 33 is_stmt 1               ## test.c:30:33
	movl	-12(%rbp), %esi
	.loc	1 30 5 is_stmt 0                ## test.c:30:5
	leaq	L_.str.4(%rip), %rdi
	movb	$0, %al
	callq	_printf
	.loc	1 31 1 is_stmt 1                ## test.c:31:1
	addq	$16, %rsp
	popq	%rbp
	retq
Ltmp8:
Lfunc_end0:
	.cfi_endproc
                                        ## -- End function
	.globl	_main                           ## -- Begin function main
	.p2align	4, 0x90
_main:                                  ## @main
Lfunc_begin1:
	.loc	1 33 0                          ## test.c:33:0
	.cfi_startproc
## %bb.0:
	pushq	%rbp
	.cfi_def_cfa_offset 16
	.cfi_offset %rbp, -16
	movq	%rsp, %rbp
	.cfi_def_cfa_register %rbp
	subq	$16, %rsp
	movl	$0, -4(%rbp)
Ltmp9:
	.loc	1 34 5 prologue_end             ## test.c:34:5
	callq	_compute_and_print
	.loc	1 35 5                          ## test.c:35:5
	xorl	%eax, %eax
	addq	$16, %rsp
	popq	%rbp
	retq
Ltmp10:
Lfunc_end1:
	.cfi_endproc
                                        ## -- End function
	.section	__TEXT,__cstring,cstring_literals
L_.str:                                 ## @.str
	.asciz	"Is Greater: %s\n"

L_.str.1:                               ## @.str.1
	.asciz	"True"

L_.str.2:                               ## @.str.2
	.asciz	"False"

L_.str.3:                               ## @.str.3
	.asciz	"Message: %c\n"

L_.str.4:                               ## @.str.4
	.asciz	"Accumulator: %d\n"

	.file	2 "/Library/Developer/CommandLineTools/SDKs/MacOSX.sdk/usr/include/_types" "_uint32_t.h"
	.file	3 "/Library/Developer/CommandLineTools/SDKs/MacOSX.sdk/usr/include/sys/_types" "_int8_t.h"
	.file	4 "/Library/Developer/CommandLineTools/SDKs/MacOSX.sdk/usr/include/_types" "_uint8_t.h"
	.file	5 "/Library/Developer/CommandLineTools/SDKs/MacOSX.sdk/usr/include/sys/_types" "_int32_t.h"